target datalayout = "e-m:e-p270:32:32-p271:32:32-p272:64:64-i64:64-i128:128-f80:128-n8:16:32:64-S128"
target triple = "x86_64-pc-linux-gnu"

%struct.ArchiveModuleCallbacks = type { ptr, ptr, ptr, ptr }

@XLogArchiveLibrary = dso_local global ptr @.str, align 8
@XLogArchiveCommand = external global ptr, align 8
@.str.3 = private unnamed_addr constant [49 x i8] c"both \22archive_command\22 and \22archive_library\22 set\00", align 1
@.str.4 = private unnamed_addr constant [61 x i8] c"Only one of \22archive_command\22, \22archive_library\22 may be set.\00", align 1
@.str.5 = private unnamed_addr constant [9 x i8] c"pgarch.c\00", align 1
@ArchiveCallbacks = internal global ptr null, align 8
@archive_module_state = internal global ptr null, align 8
@__func__.LoadArchiveLibrary = private unnamed_addr constant [19 x i8] c"LoadArchiveLibrary\00", align 1
@.str.25 = private unnamed_addr constant [24 x i8] c"_PG_archive_module_init\00", align 1
@.str.26 = private unnamed_addr constant [45 x i8] c"archive modules have to define the symbol %s\00", align 1
@.str.27 = private unnamed_addr constant [50 x i8] c"archive modules must register an archive callback\00", align 1

; Function Attrs: nounwind uwtable
define internal void @LoadArchiveLibrary() #0 {
  %1 = alloca ptr, align 8
  call void @llvm.lifetime.start.p0(i64 8, ptr %1) #14
  %2 = load ptr, ptr @XLogArchiveLibrary, align 8
  %3 = getelementptr inbounds i8, ptr %2, i64 0
  %4 = load i8, ptr %3, align 1
  %5 = sext i8 %4 to i32
  %6 = icmp ne i32 %5, 0
  br i1 %6, label %7, label %26

7:                                                ; preds = %0
  %8 = load ptr, ptr @XLogArchiveCommand, align 8
  %9 = getelementptr inbounds i8, ptr %8, i64 0
  %10 = load i8, ptr %9, align 1
  %11 = sext i8 %10 to i32
  %12 = icmp ne i32 %11, 0
  br i1 %12, label %13, label %26

13:                                               ; preds = %7
  br label %14

14:                                               ; preds = %13
  br i1 true, label %15, label %17

15:                                               ; preds = %14
  %16 = call zeroext i1 @errstart_cold(i32 noundef 21, ptr noundef null) #17
  br i1 %16, label %19, label %23

17:                                               ; preds = %14
  %18 = call zeroext i1 @errstart(i32 noundef 21, ptr noundef null)
  br i1 %18, label %19, label %23

19:                                               ; preds = %17, %15
  %20 = call i32 @errcode(i32 noundef 50856066)
  %21 = call i32 (ptr, ...) @errmsg(ptr noundef @.str.3)
  %22 = call i32 (ptr, ...) @errdetail(ptr noundef @.str.4)
  call void @errfinish(ptr noundef @.str.5, i32 noundef 919, ptr noundef @__func__.LoadArchiveLibrary)
  br label %23

23:                                               ; preds = %19, %17, %15
  unreachable

24:                                               ; No predecessors!
  br label %25

25:                                               ; preds = %24
  br label %26

26:                                               ; preds = %25, %7, %0
  %27 = load ptr, ptr @XLogArchiveLibrary, align 8
  %28 = getelementptr inbounds i8, ptr %27, i64 0
  %29 = load i8, ptr %28, align 1
  %30 = sext i8 %29 to i32
  %31 = icmp eq i32 %30, 0
  br i1 %31, label %32, label %33

32:                                               ; preds = %26
  store ptr @shell_archive_init, ptr %1, align 8
  br label %36

33:                                               ; preds = %26
  %34 = load ptr, ptr @XLogArchiveLibrary, align 8
  %35 = call ptr @load_external_function(ptr noundef %34, ptr noundef @.str.25, i1 noundef zeroext false, ptr noundef null)
  store ptr %35, ptr %1, align 8
  br label %36

36:                                               ; preds = %33, %32
  %37 = load ptr, ptr %1, align 8
  %38 = icmp eq ptr %37, null
  br i1 %38, label %39, label %50

39:                                               ; preds = %36
  br label %40

40:                                               ; preds = %39
  br i1 true, label %41, label %43

41:                                               ; preds = %40
  %42 = call zeroext i1 @errstart_cold(i32 noundef 21, ptr noundef null) #17
  br i1 %42, label %45, label %47

43:                                               ; preds = %40
  %44 = call zeroext i1 @errstart(i32 noundef 21, ptr noundef null)
  br i1 %44, label %45, label %47

45:                                               ; preds = %43, %41
  %46 = call i32 (ptr, ...) @errmsg(ptr noundef @.str.26, ptr noundef @.str.25)
  call void @errfinish(ptr noundef @.str.5, i32 noundef 934, ptr noundef @__func__.LoadArchiveLibrary)
  br label %47

47:                                               ; preds = %45, %43, %41
  unreachable

48:                                               ; No predecessors!
  br label %49

49:                                               ; preds = %48
  br label %50

50:                                               ; preds = %49, %36
  %51 = load ptr, ptr %1, align 8
  %52 = call ptr %51()
  store ptr %52, ptr @ArchiveCallbacks, align 8
  %53 = load ptr, ptr @ArchiveCallbacks, align 8
  %54 = getelementptr inbounds nuw %struct.ArchiveModuleCallbacks, ptr %53, i32 0, i32 2
  %55 = load ptr, ptr %54, align 8
  %56 = icmp eq ptr %55, null
  br i1 %56, label %57, label %68

57:                                               ; preds = %50
  br label %58

58:                                               ; preds = %57
  br i1 true, label %59, label %61

59:                                               ; preds = %58
  %60 = call zeroext i1 @errstart_cold(i32 noundef 21, ptr noundef null) #17
  br i1 %60, label %63, label %65

61:                                               ; preds = %58
  %62 = call zeroext i1 @errstart(i32 noundef 21, ptr noundef null)
  br i1 %62, label %63, label %65

63:                                               ; preds = %61, %59
  %64 = call i32 (ptr, ...) @errmsg(ptr noundef @.str.27)
  call void @errfinish(ptr noundef @.str.5, i32 noundef 940, ptr noundef @__func__.LoadArchiveLibrary)
  br label %65

65:                                               ; preds = %63, %61, %59
  unreachable

66:                                               ; No predecessors!
  br label %67

67:                                               ; preds = %66
  br label %68

68:                                               ; preds = %67, %50
  %69 = call ptr @palloc0(i64 noundef 8)
  store ptr %69, ptr @archive_module_state, align 8
  %70 = load ptr, ptr @ArchiveCallbacks, align 8
  %71 = getelementptr inbounds nuw %struct.ArchiveModuleCallbacks, ptr %70, i32 0, i32 0
  %72 = load ptr, ptr %71, align 8
  %73 = icmp ne ptr %72, null
  br i1 %73, label %74, label %79

74:                                               ; preds = %68
  %75 = load ptr, ptr @ArchiveCallbacks, align 8
  %76 = getelementptr inbounds nuw %struct.ArchiveModuleCallbacks, ptr %75, i32 0, i32 0
  %77 = load ptr, ptr %76, align 8
  %78 = load ptr, ptr @archive_module_state, align 8
  call void %77(ptr noundef %78)
  br label %79

79:                                               ; preds = %74, %68
  call void @before_shmem_exit(ptr noundef @pgarch_call_module_shutdown_cb, i64 noundef 0)
  call void @llvm.lifetime.end.p0(i64 8, ptr %1) #14
  ret void
}