; Function Attrs: nounwind uwtable
define internal fastcc void @LoadArchiveLibrary() unnamed_addr #0 {
  %1 = load ptr, ptr @XLogArchiveLibrary, align 8
  %2 = load i8, ptr %1, align 1
  %.not = icmp eq i8 %2, 0
  br i1 %.not, label %.thread5, label %3

3:                                                ; preds = %0
  %4 = load ptr, ptr @XLogArchiveCommand, align 8
  %5 = load i8, ptr %4, align 1
  %.not3 = icmp eq i8 %5, 0
  br i1 %.not3, label %11, label %6

6:                                                ; preds = %3
  %7 = tail call zeroext i1 @errstart_cold(i32 noundef 21, ptr noundef null) #22
  tail call void @llvm.assume(i1 %7)
  %8 = tail call i32 @errcode(i32 noundef 50856066) #19
  %9 = tail call i32 (ptr, ...) @errmsg(ptr noundef nonnull @.str.3) #19
  %10 = tail call i32 (ptr, ...) @errdetail(ptr noundef nonnull @.str.4) #19
  tail call void @errfinish(ptr noundef nonnull @.str.5, i32 noundef 919, ptr noundef nonnull @__func__.LoadArchiveLibrary) #19
  unreachable

11:                                               ; preds = %3
  %12 = tail call ptr @load_external_function(ptr noundef nonnull %1, ptr noundef nonnull @.str.25, i1 noundef zeroext false, ptr noundef null) #19
  %13 = icmp eq ptr %12, null
  br i1 %13, label %14, label %.thread5

14:                                               ; preds = %11
  %15 = tail call zeroext i1 @errstart_cold(i32 noundef 21, ptr noundef null) #22
  tail call void @llvm.assume(i1 %15)
  %16 = tail call i32 (ptr, ...) @errmsg(ptr noundef nonnull @.str.26, ptr noundef nonnull @.str.25) #19
  tail call void @errfinish(ptr noundef nonnull @.str.5, i32 noundef 934, ptr noundef nonnull @__func__.LoadArchiveLibrary) #19
  unreachable

.thread5:                                         ; preds = %0, %11
  %.07 = phi ptr [ %12, %11 ], [ @shell_archive_init, %0 ]
  %17 = tail call ptr %.07() #19
  store ptr %17, ptr @ArchiveCallbacks, align 8
  %18 = getelementptr inbounds nuw i8, ptr %17, i64 16
  %19 = load ptr, ptr %18, align 8
  %20 = icmp eq ptr %19, null
  br i1 %20, label %21, label %24

21:                                               ; preds = %.thread5
  %22 = tail call zeroext i1 @errstart_cold(i32 noundef 21, ptr noundef null) #22
  tail call void @llvm.assume(i1 %22)
  %23 = tail call i32 (ptr, ...) @errmsg(ptr noundef nonnull @.str.27) #19
  tail call void @errfinish(ptr noundef nonnull @.str.5, i32 noundef 940, ptr noundef nonnull @__func__.LoadArchiveLibrary) #19
  unreachable

24:                                               ; preds = %.thread5
  %25 = tail call ptr @palloc0(i64 noundef 8) #19
  store ptr %25, ptr @archive_module_state, align 8
  %26 = load ptr, ptr @ArchiveCallbacks, align 8
  %27 = load ptr, ptr %26, align 8
  %.not4 = icmp eq ptr %27, null
  br i1 %.not4, label %29, label %28

28:                                               ; preds = %24
  tail call void %27(ptr noundef %25) #19
  br label %29

29:                                               ; preds = %28, %24
  tail call void @before_shmem_exit(ptr noundef nonnull @pgarch_call_module_shutdown_cb, i64 noundef 0) #19
  ret void
}